; Function Attrs: mustprogress uwtable
define dso_local noundef i64 @_ZNK4onnx14ValueInfoProto12ByteSizeLongEv(ptr noundef nonnull align 8 dereferenceable(48) %0) unnamed_addr #3 align 2 {
  %2 = getelementptr inbounds nuw i8, ptr %0, i64 16
  %3 = load i32, ptr %2, align 8, !tbaa !50
  %4 = and i32 %3, 7
  %.not = icmp eq i32 %4, 0
  br i1 %.not, label %57, label %5

5:                                                ; preds = %1
  %6 = and i32 %3, 1
  %.not13 = icmp eq i32 %6, 0
  br i1 %.not13, label %22, label %7

7:                                                ; preds = %5
  %8 = getelementptr inbounds nuw i8, ptr %0, i64 24
  %9 = load ptr, ptr %8, align 8, !tbaa !12
  %10 = getelementptr inbounds nuw i8, ptr %9, i64 8
  %11 = load i64, ptr %10, align 8, !tbaa !96
  %12 = trunc i64 %11 to i32
  %13 = or i32 %12, 1
  %14 = tail call range(i32 0, 33) i32 @llvm.ctlz.i32(i32 %13, i1 true)
  %15 = xor i32 %14, 31
  %16 = mul nuw nsw i32 %15, 9
  %17 = add nuw nsw i32 %16, 73
  %18 = lshr i32 %17, 6
  %19 = zext nneg i32 %18 to i64
  %20 = add i64 %11, 1
  %21 = add i64 %20, %19
  br label %22

22:                                               ; preds = %7, %5
  %.1 = phi i64 [ %21, %7 ], [ 0, %5 ]
  %23 = and i32 %3, 2
  %.not14 = icmp eq i32 %23, 0
  br i1 %.not14, label %40, label %24

24:                                               ; preds = %22
  %25 = getelementptr inbounds nuw i8, ptr %0, i64 32
  %26 = load ptr, ptr %25, align 8, !tbaa !12
  %27 = getelementptr inbounds nuw i8, ptr %26, i64 8
  %28 = load i64, ptr %27, align 8, !tbaa !96
  %29 = trunc i64 %28 to i32
  %30 = or i32 %29, 1
  %31 = tail call range(i32 0, 33) i32 @llvm.ctlz.i32(i32 %30, i1 true)
  %32 = xor i32 %31, 31
  %33 = mul nuw nsw i32 %32, 9
  %34 = add nuw nsw i32 %33, 73
  %35 = lshr i32 %34, 6
  %36 = zext nneg i32 %35 to i64
  %37 = add i64 %.1, 1
  %38 = add i64 %37, %28
  %39 = add i64 %38, %36
  br label %40

40:                                               ; preds = %24, %22
  %.2 = phi i64 [ %39, %24 ], [ %.1, %22 ]
  %41 = and i32 %3, 4
  %.not15 = icmp eq i32 %41, 0
  br i1 %.not15, label %57, label %42

42:                                               ; preds = %40
  %43 = getelementptr inbounds nuw i8, ptr %0, i64 40
  %44 = load ptr, ptr %43, align 8, !tbaa !61
  %45 = tail call noundef i64 @_ZNK4onnx9TypeProto12ByteSizeLongEv(ptr noundef nonnull align 8 dereferenceable(48) %44)
  %46 = trunc i64 %45 to i32
  %47 = or i32 %46, 1
  %48 = tail call range(i32 0, 33) i32 @llvm.ctlz.i32(i32 %47, i1 true)
  %49 = xor i32 %48, 31
  %50 = mul nuw nsw i32 %49, 9
  %51 = add nuw nsw i32 %50, 73
  %52 = lshr i32 %51, 6
  %53 = zext nneg i32 %52 to i64
  %54 = add i64 %.2, 1
  %55 = add i64 %54, %45
  %56 = add i64 %55, %53
  br label %57

57:                                               ; preds = %40, %42, %1
  %.012 = phi i64 [ %56, %42 ], [ %.2, %40 ], [ 0, %1 ]
  %58 = getelementptr inbounds nuw i8, ptr %0, i64 8
  %59 = load ptr, ptr %58, align 8, !tbaa !4
  %60 = ptrtoint ptr %59 to i64
  %61 = and i64 %60, 1
  %.not16 = icmp eq i64 %61, 0
  br i1 %.not16, label %65, label %62, !prof !11

62:                                               ; preds = %57
  %63 = getelementptr inbounds nuw i8, ptr %0, i64 20
  %64 = tail call noundef i64 @_ZN6google8protobuf8internal24ComputeUnknownFieldsSizeERKNS1_16InternalMetadataEmPNS1_10CachedSizeE(ptr noundef nonnull align 8 dereferenceable(8) %58, i64 noundef %.012, ptr noundef nonnull %63)
  br label %68

65:                                               ; preds = %57
  %66 = trunc i64 %.012 to i32
  %67 = getelementptr inbounds nuw i8, ptr %0, i64 20
  store atomic i32 %66, ptr %67 monotonic, align 4
  br label %68

68:                                               ; preds = %65, %62
  %.0 = phi i64 [ %64, %62 ], [ %.012, %65 ]
  ret i64 %.0
}